; Function Attrs: nounwind uwtable
define hidden void @nghttp2_frame_pack_window_update(ptr noundef readonly captures(none) %0, ptr noundef readonly captures(none) %1) local_unnamed_addr #0 {
  %3 = load ptr, ptr %0, align 8, !tbaa !65
  %4 = getelementptr inbounds nuw i8, ptr %0, i64 8
  %5 = load ptr, ptr %4, align 8, !tbaa !68
  %6 = icmp eq ptr %3, %5
  br i1 %6, label %8, label %7

7:                                                ; preds = %2
  tail call void @__assert_fail(ptr noundef nonnull @.str, ptr noundef nonnull @.str.1, i32 noundef 695, ptr noundef nonnull @__PRETTY_FUNCTION__.nghttp2_frame_pack_window_update) #19
  unreachable

8:                                                ; preds = %2
  %9 = getelementptr inbounds nuw i8, ptr %3, i64 16
  %10 = load ptr, ptr %9, align 8, !tbaa !79
  %11 = getelementptr inbounds nuw i8, ptr %3, i64 32
  %12 = load ptr, ptr %11, align 8, !tbaa !71
  %13 = ptrtoint ptr %10 to i64
  %14 = ptrtoint ptr %12 to i64
  %15 = sub i64 %13, %14
  %16 = icmp ugt i64 %15, 3
  br i1 %16, label %18, label %17

17:                                               ; preds = %8
  tail call void @__assert_fail(ptr noundef nonnull @.str.3, ptr noundef nonnull @.str.1, i32 noundef 699, ptr noundef nonnull @__PRETTY_FUNCTION__.nghttp2_frame_pack_window_update) #19
  unreachable

18:                                               ; preds = %8
  %19 = getelementptr inbounds nuw i8, ptr %3, i64 24
  %20 = load ptr, ptr %19, align 8, !tbaa !69
  %21 = getelementptr inbounds i8, ptr %20, i64 -9
  store ptr %21, ptr %19, align 8, !tbaa !69
  %22 = load i64, ptr %1, align 8, !tbaa !3
  %.tr.i = trunc i64 %22 to i32
  %23 = shl i32 %.tr.i, 8
  tail call void @nghttp2_put_uint32be(ptr noundef nonnull %21, i32 noundef %23) #18
  %24 = getelementptr inbounds nuw i8, ptr %1, i64 12
  %25 = load i8, ptr %24, align 4, !tbaa !9
  %26 = getelementptr inbounds i8, ptr %20, i64 -6
  store i8 %25, ptr %26, align 1, !tbaa !10
  %27 = getelementptr inbounds nuw i8, ptr %1, i64 13
  %28 = load i8, ptr %27, align 1, !tbaa !11
  %29 = getelementptr inbounds i8, ptr %20, i64 -5
  store i8 %28, ptr %29, align 1, !tbaa !10
  %30 = getelementptr inbounds i8, ptr %20, i64 -4
  %31 = getelementptr inbounds nuw i8, ptr %1, i64 8
  %32 = load i32, ptr %31, align 8, !tbaa !12
  tail call void @nghttp2_put_uint32be(ptr noundef nonnull %30, i32 noundef %32) #18
  %33 = load ptr, ptr %11, align 8, !tbaa !71
  %34 = getelementptr inbounds nuw i8, ptr %1, i64 16
  %35 = load i32, ptr %34, align 8, !tbaa !41
  tail call void @nghttp2_put_uint32be(ptr noundef %33, i32 noundef %35) #18
  %36 = load ptr, ptr %11, align 8, !tbaa !71
  %37 = getelementptr inbounds nuw i8, ptr %36, i64 4
  store ptr %37, ptr %11, align 8, !tbaa !71
  ret void
}